#include <math.h>
#include <stdio.h>
#include <stdlib.h>
#include <string.h>

int main () {
	int a[100],n,i,b[50];
	scanf("%d",&n);
	for(i=0;i<=n-1;i++) {
		scanf("%d", &a[i]);}
	for(i=0;i<=(n-1)/2;i++){
        b[i]=a[n-i-1];
	    a[n-i-1]=a[i];
		a[i]=b[i];}
    for(i=0;i<=n-1;i++){
		if (i<=n-2){
		printf("%d ",a[i]);}
		else{printf("%d",a[i]);}}
		return 0;
	}

		
	
	
		